TN:
SF:/home/jaitin/Documents/COS 214/Prac1/AdminUser.cpp
FN:3,5,_ZN9AdminUserC2ENSt7__cxx1112basic_stringIcSt11char_traitsIcESaIcEEE
FN:7,9,_ZN9AdminUserD2Ev
FNDA:2,_ZN9AdminUserC2ENSt7__cxx1112basic_stringIcSt11char_traitsIcESaIcEEE
FNDA:2,_ZN9AdminUserD2Ev
FNF:2
FNH:2
DA:3,2
DA:5,2
DA:7,2
DA:9,2
LF:4
LH:4
end_of_record
TN:
SF:/home/jaitin/Documents/COS 214/Prac1/Aggregate.h
FN:22,22,_ZN9AggregateC2Ev
FN:27,27,_ZN9AggregateD0Ev
FN:27,27,_ZN9AggregateD2Ev
FNDA:2,_ZN9AggregateC2Ev
FNDA:0,_ZN9AggregateD0Ev
FNDA:2,_ZN9AggregateD2Ev
FNF:3
FNH:2
DA:22,2
DA:27,2
LF:2
LH:2
end_of_record
TN:
SF:/home/jaitin/Documents/COS 214/Prac1/Caretaker.cpp
FN:10,26,_ZN9Caretaker10addMementoESt10shared_ptrI7MementoE
FN:107,119,_ZNK9Caretaker14displayHistoryEv
FN:28,36,_ZNK9Caretaker10getMementoEm
FN:37,45,_ZNK9Caretaker16getLatestMementoEv
FN:46,49,_ZNK9Caretaker14getAllMementosEv
FN:5,8,_ZN9CaretakerC2Em
FN:50,63,_ZN9Caretaker4undoEv
FN:65,79,_ZN9Caretaker4redoEv
FN:81,84,_ZNK9Caretaker14getHistorySizeEv
FN:86,105,_ZNK9Caretaker14searchMementosERKNSt7__cxx1112basic_stringIcSt11char_traitsIcESaIcEEE
FNDA:4,_ZN9Caretaker10addMementoESt10shared_ptrI7MementoE
FNDA:0,_ZNK9Caretaker14displayHistoryEv
FNDA:0,_ZNK9Caretaker10getMementoEm
FNDA:0,_ZNK9Caretaker16getLatestMementoEv
FNDA:0,_ZNK9Caretaker14getAllMementosEv
FNDA:2,_ZN9CaretakerC2Em
FNDA:1,_ZN9Caretaker4undoEv
FNDA:1,_ZN9Caretaker4redoEv
FNDA:0,_ZNK9Caretaker14getHistorySizeEv
FNDA:1,_ZNK9Caretaker14searchMementosERKNSt7__cxx1112basic_stringIcSt11char_traitsIcESaIcEEE
FNF:10
FNH:5
DA:5,2
DA:8,2
DA:10,4
DA:12,4
DA:14,0
DA:16,4
DA:17,4
DA:19,4
DA:21,0
DA:24,4
DA:26,4
DA:28,0
DA:30,0
DA:32,0
DA:34,0
DA:35,0
DA:37,0
DA:39,0
DA:41,0
DA:43,0
DA:44,0
DA:46,0
DA:48,0
DA:50,1
DA:52,1
DA:55,1
DA:56,1
DA:58,1
DA:59,1
DA:61,0
DA:62,0
DA:65,1
DA:67,1
DA:70,1
DA:71,1
DA:72,1
DA:74,1
DA:75,1
DA:76,1
DA:77,0
DA:78,0
DA:81,0
DA:83,0
DA:86,1
DA:88,1
DA:89,3
DA:91,2
DA:93,1
DA:96,1
DA:98,0
DA:102,1
DA:104,1
DA:105,0
DA:107,0
DA:109,0
DA:111,0
DA:112,0
DA:114,0
DA:115,0
DA:117,0
LF:60
LH:31
end_of_record
TN:
SF:/home/jaitin/Documents/COS 214/Prac1/ChatRoom.cpp
FN:100,112,_ZNK8ChatRoom21displayMessageHistoryEv
FN:114,123,_ZN8ChatRoom15undoLastMessageEv
FN:125,134,_ZN8ChatRoom11redoMessageEv
FN:136,147,_ZNK8ChatRoom14searchMessagesERKNSt7__cxx1112basic_stringIcSt11char_traitsIcESaIcEEE
FN:149,152,_ZNK8ChatRoom14createIteratorEv
FN:22,41,_ZN8ChatRoom12registerUserEP4User
FN:43,56,_ZN8ChatRoom10removeUserEP4User
FN:5,7,_ZN8ChatRoomD0Ev
FN:5,7,_ZN8ChatRoomD2Ev
FN:59,64,_ZN8ChatRoomC2ERKNSt7__cxx1112basic_stringIcSt11char_traitsIcESaIcEEE
FN:66,83,_ZN8ChatRoom11sendMessageERKNSt7__cxx1112basic_stringIcSt11char_traitsIcESaIcEEEP4User
FN:9,20,_ZN8ChatRoom11saveMessageENSt7__cxx1112basic_stringIcSt11char_traitsIcESaIcEEEP4User
FN:90,98,_ZN8ChatRoom14restoreMessageEm
FNDA:3,_ZNK8ChatRoom21displayMessageHistoryEv
FNDA:1,_ZN8ChatRoom15undoLastMessageEv
FNDA:1,_ZN8ChatRoom11redoMessageEv
FNDA:1,_ZNK8ChatRoom14searchMessagesERKNSt7__cxx1112basic_stringIcSt11char_traitsIcESaIcEEE
FNDA:0,_ZNK8ChatRoom14createIteratorEv
FNDA:6,_ZN8ChatRoom12registerUserEP4User
FNDA:1,_ZN8ChatRoom10removeUserEP4User
FNDA:0,_ZN8ChatRoomD0Ev
FNDA:2,_ZN8ChatRoomD2Ev
FNDA:2,_ZN8ChatRoomC2ERKNSt7__cxx1112basic_stringIcSt11char_traitsIcESaIcEEE
FNDA:4,_ZN8ChatRoom11sendMessageERKNSt7__cxx1112basic_stringIcSt11char_traitsIcESaIcEEEP4User
FNDA:4,_ZN8ChatRoom11saveMessageENSt7__cxx1112basic_stringIcSt11char_traitsIcESaIcEEEP4User
FNDA:0,_ZN8ChatRoom14restoreMessageEm
FNF:13
FNH:10
DA:5,2
DA:7,2
DA:9,4
DA:11,4
DA:13,15
DA:15,11
DA:17,7
DA:20,4
DA:22,6
DA:24,6
DA:26,12
DA:28,6
DA:30,0
DA:34,0
DA:36,0
DA:39,6
DA:40,6
DA:43,1
DA:45,3
DA:47,3
DA:49,3
DA:51,1
DA:52,1
DA:59,2
DA:60,2
DA:61,2
DA:62,6
DA:64,2
DA:66,4
DA:70,4
DA:71,4
DA:74,4
DA:76,15
DA:83,4
DA:90,0
DA:92,0
DA:93,0
DA:95,0
DA:96,0
DA:98,0
DA:100,3
DA:102,3
DA:103,3
DA:105,8
DA:107,5
DA:108,5
DA:111,3
DA:112,3
DA:114,1
DA:116,1
DA:117,1
DA:119,1
DA:122,1
DA:123,1
DA:125,1
DA:127,1
DA:128,1
DA:130,1
DA:133,1
DA:134,1
DA:136,1
DA:138,1
DA:139,1
DA:141,1
DA:142,2
DA:144,1
DA:147,1
DA:149,0
DA:151,0
LF:69
LH:58
end_of_record
TN:
SF:/home/jaitin/Documents/COS 214/Prac1/ChatRoom.h
FN:117,117,_ZNK8ChatRoom7getNameB5cxx11Ev
FN:138,138,_ZNK8ChatRoom14getChatHistoryB5cxx11Ev
FNDA:8,_ZNK8ChatRoom7getNameB5cxx11Ev
FNDA:23,_ZNK8ChatRoom14getChatHistoryB5cxx11Ev
FNF:2
FNH:2
DA:117,8
DA:138,23
LF:2
LH:2
end_of_record
TN:
SF:/home/jaitin/Documents/COS 214/Prac1/Command.h
FN:33,38,_ZN7CommandC2EP8ChatRoomNSt7__cxx1112basic_stringIcSt11char_traitsIcESaIcEEEP4User
FNDA:8,_ZN7CommandC2EP8ChatRoomNSt7__cxx1112basic_stringIcSt11char_traitsIcESaIcEEEP4User
FNF:1
FNH:1
DA:33,8
DA:34,8
DA:35,8
DA:36,8
DA:37,8
DA:38,8
LF:6
LH:6
end_of_record
TN:
SF:/home/jaitin/Documents/COS 214/Prac1/ConcreteIterator.cpp
FN:10,13,_ZN16ConcreteIterator5firstEv
FN:15,22,_ZN16ConcreteIterator4nextEv
FN:24,27,_ZNK16ConcreteIterator6isDoneEv
FN:29,36,_ZNK16ConcreteIterator11currentItemB5cxx11Ev
FN:3,6,_ZN16ConcreteIteratorC2EPK8ChatRoom
FN:8,8,_ZN16ConcreteIteratorD0Ev
FN:8,8,_ZN16ConcreteIteratorD2Ev
FNDA:3,_ZN16ConcreteIterator5firstEv
FNDA:5,_ZN16ConcreteIterator4nextEv
FNDA:13,_ZNK16ConcreteIterator6isDoneEv
FNDA:5,_ZNK16ConcreteIterator11currentItemB5cxx11Ev
FNDA:3,_ZN16ConcreteIteratorC2EPK8ChatRoom
FNDA:3,_ZN16ConcreteIteratorD0Ev
FNDA:3,_ZN16ConcreteIteratorD2Ev
FNF:7
FNH:7
DA:3,3
DA:4,3
DA:6,3
DA:8,6
DA:10,3
DA:12,3
DA:13,3
DA:15,5
DA:18,5
DA:20,5
DA:22,5
DA:24,13
DA:26,13
DA:29,5
DA:31,5
DA:33,5
DA:35,0
LF:17
LH:16
end_of_record
TN:
SF:/home/jaitin/Documents/COS 214/Prac1/CtrlCat.cpp
FN:3,5,_ZN7CtrlCatC2Ev
FN:7,9,_ZN7CtrlCatD0Ev
FN:7,9,_ZN7CtrlCatD2Ev
FNDA:1,_ZN7CtrlCatC2Ev
FNDA:1,_ZN7CtrlCatD0Ev
FNDA:1,_ZN7CtrlCatD2Ev
FNF:3
FNH:3
DA:3,2
DA:5,1
DA:7,2
DA:9,2
LF:4
LH:4
end_of_record
TN:
SF:/home/jaitin/Documents/COS 214/Prac1/CtrlCat.h
FN:62,65,_ZNK7CtrlCat14createIteratorEv
FNDA:3,_ZNK7CtrlCat14createIteratorEv
FNF:1
FNH:1
DA:62,3
DA:64,3
LF:2
LH:2
end_of_record
TN:
SF:/home/jaitin/Documents/COS 214/Prac1/Dogorithm.cpp
FN:3,5,_ZN9DogorithmC2Ev
FN:7,9,_ZN9DogorithmD0Ev
FN:7,9,_ZN9DogorithmD2Ev
FNDA:1,_ZN9DogorithmC2Ev
FNDA:1,_ZN9DogorithmD0Ev
FNDA:1,_ZN9DogorithmD2Ev
FNF:3
FNH:3
DA:3,2
DA:5,1
DA:7,2
DA:9,2
LF:4
LH:4
end_of_record
TN:
SF:/home/jaitin/Documents/COS 214/Prac1/Dogorithm.h
FN:63,66,_ZNK9Dogorithm14createIteratorEv
FNDA:0,_ZNK9Dogorithm14createIteratorEv
FNF:1
FNH:0
DA:63,0
DA:65,0
LF:2
LH:0
end_of_record
TN:
SF:/home/jaitin/Documents/COS 214/Prac1/GuestUser.cpp
FN:3,5,_ZN9GuestUserC2ENSt7__cxx1112basic_stringIcSt11char_traitsIcESaIcEEE
FN:7,9,_ZN9GuestUserD2Ev
FNDA:1,_ZN9GuestUserC2ENSt7__cxx1112basic_stringIcSt11char_traitsIcESaIcEEE
FNDA:1,_ZN9GuestUserD2Ev
FNF:2
FNH:2
DA:3,1
DA:5,1
DA:7,1
DA:9,1
LF:4
LH:4
end_of_record
TN:
SF:/home/jaitin/Documents/COS 214/Prac1/Iterator.h
FN:66,66,_ZN8IteratorD0Ev
FN:66,66,_ZN8IteratorD2Ev
FNDA:0,_ZN8IteratorD0Ev
FNDA:3,_ZN8IteratorD2Ev
FNF:2
FNH:1
DA:66,3
LF:1
LH:1
end_of_record
TN:
SF:/home/jaitin/Documents/COS 214/Prac1/LogMessageCommand.cpp
FN:15,36,_ZN17LogMessageCommand7executeEv
FNDA:4,_ZN17LogMessageCommand7executeEv
FNF:1
FNH:1
DA:15,4
DA:17,4
DA:20,4
DA:22,4
DA:26,0
DA:29,4
DA:31,4
DA:33,4
DA:35,4
DA:36,4
LF:10
LH:9
end_of_record
TN:
SF:/home/jaitin/Documents/COS 214/Prac1/LogMessageCommand.h
FN:33,33,_ZN17LogMessageCommandC2EP8ChatRoomNSt7__cxx1112basic_stringIcSt11char_traitsIcESaIcEEEP4User
FNDA:4,_ZN17LogMessageCommandC2EP8ChatRoomNSt7__cxx1112basic_stringIcSt11char_traitsIcESaIcEEEP4User
FNF:1
FNH:1
DA:33,4
LF:1
LH:1
end_of_record
TN:
SF:/home/jaitin/Documents/COS 214/Prac1/Memento.cpp
FN:21,25,_ZN7Memento10getContextB5cxx11Ev
FN:27,30,_ZN7Memento9getSenderEv
FN:32,35,_ZN7Memento12getTimeStampB5cxx11Ev
FN:37,40,_ZN7Memento15getChatRoomNameB5cxx11Ev
FN:42,45,_ZN7Memento8toStringB5cxx11Ev
FN:6,19,_ZN7MementoC2ENSt7__cxx1112basic_stringIcSt11char_traitsIcESaIcEEEP4UserS5_S5_
FNDA:1,_ZN7Memento10getContextB5cxx11Ev
FNDA:1,_ZN7Memento9getSenderEv
FNDA:0,_ZN7Memento12getTimeStampB5cxx11Ev
FNDA:0,_ZN7Memento15getChatRoomNameB5cxx11Ev
FNDA:7,_ZN7Memento8toStringB5cxx11Ev
FNDA:4,_ZN7MementoC2ENSt7__cxx1112basic_stringIcSt11char_traitsIcESaIcEEEP4UserS5_S5_
FNF:6
FNH:4
DA:6,4
DA:7,4
DA:10,4
DA:12,4
DA:15,4
DA:17,4
DA:19,4
DA:21,1
DA:24,1
DA:27,1
DA:29,1
DA:32,0
DA:34,0
DA:37,0
DA:39,0
DA:42,7
DA:44,14
LF:17
LH:13
end_of_record
TN:
SF:/home/jaitin/Documents/COS 214/Prac1/Originator.cpp
FN:10,14,_ZN10OriginatorC2EP8ChatRoomRKNSt7__cxx1112basic_stringIcSt11char_traitsIcESaIcEEE
FN:16,28,_ZN10Originator20saveMessageToMementoERKNSt7__cxx1112basic_stringIcSt11char_traitsIcESaIcEEEP4User
FN:30,41,_ZN10Originator25restoreMessageFromMementoERKSt10shared_ptrI7MementoE
FNDA:2,_ZN10OriginatorC2EP8ChatRoomRKNSt7__cxx1112basic_stringIcSt11char_traitsIcESaIcEEE
FNDA:4,_ZN10Originator20saveMessageToMementoERKNSt7__cxx1112basic_stringIcSt11char_traitsIcESaIcEEEP4User
FNDA:0,_ZN10Originator25restoreMessageFromMementoERKSt10shared_ptrI7MementoE
FNF:3
FNH:2
DA:10,2
DA:11,2
DA:13,2
DA:14,2
DA:16,4
DA:19,4
DA:20,4
DA:22,4
DA:24,4
DA:27,8
DA:30,0
DA:32,0
DA:34,0
DA:35,0
DA:39,0
DA:41,0
LF:16
LH:10
end_of_record
TN:
SF:/home/jaitin/Documents/COS 214/Prac1/SendMessageCommmand.cpp
FN:13,17,_ZN19SendMessageCommmand7executeEv
FNDA:4,_ZN19SendMessageCommmand7executeEv
FNF:1
FNH:1
DA:13,4
DA:15,4
DA:16,4
DA:17,4
LF:4
LH:4
end_of_record
TN:
SF:/home/jaitin/Documents/COS 214/Prac1/SendMessageCommmand.h
FN:32,32,_ZN19SendMessageCommmandC2EP8ChatRoomNSt7__cxx1112basic_stringIcSt11char_traitsIcESaIcEEEP4User
FNDA:4,_ZN19SendMessageCommmandC2EP8ChatRoomNSt7__cxx1112basic_stringIcSt11char_traitsIcESaIcEEEP4User
FNF:1
FNH:1
DA:32,4
LF:1
LH:1
end_of_record
TN:
SF:/home/jaitin/Documents/COS 214/Prac1/StandardUser.cpp
FN:3,5,_ZN12StandardUserC2ENSt7__cxx1112basic_stringIcSt11char_traitsIcESaIcEEE
FN:7,9,_ZN12StandardUserD2Ev
FNDA:1,_ZN12StandardUserC2ENSt7__cxx1112basic_stringIcSt11char_traitsIcESaIcEEE
FNDA:1,_ZN12StandardUserD2Ev
FNF:2
FNH:2
DA:3,1
DA:5,1
DA:7,1
DA:9,1
LF:4
LH:4
end_of_record
TN:
SF:/home/jaitin/Documents/COS 214/Prac1/TestingMain.cpp
FN:7,59,main
FNDA:1,main
FNF:1
FNH:1
DA:7,1
DA:9,2
DA:10,2
DA:11,2
DA:12,2
DA:14,1
DA:15,1
DA:17,1
DA:18,1
DA:19,1
DA:21,1
DA:22,1
DA:23,1
DA:25,2
DA:27,1
DA:29,2
DA:30,1
DA:31,2
DA:32,1
DA:34,1
DA:36,1
DA:38,1
DA:40,1
DA:42,1
DA:44,1
DA:46,2
DA:47,1
DA:49,2
DA:51,1
DA:52,1
DA:53,1
DA:54,1
DA:56,1
DA:57,1
DA:58,1
LF:35
LH:35
end_of_record
TN:
SF:/home/jaitin/Documents/COS 214/Prac1/User.cpp
FN:10,16,_ZN4UserD2Ev
FN:18,27,_ZN4User4sendENSt7__cxx1112basic_stringIcSt11char_traitsIcESaIcEEEP8ChatRoom
FN:29,32,_ZN4User7receiveENSt7__cxx1112basic_stringIcSt11char_traitsIcESaIcEEEPS_P8ChatRoom
FN:3,8,_ZN4UserC2ENSt7__cxx1112basic_stringIcSt11char_traitsIcESaIcEEE
FN:34,37,_ZN4User10addCommandEP7Command
FN:39,55,_ZN4User10executeAllEv
FNDA:4,_ZN4UserD2Ev
FNDA:4,_ZN4User4sendENSt7__cxx1112basic_stringIcSt11char_traitsIcESaIcEEEP8ChatRoom
FNDA:7,_ZN4User7receiveENSt7__cxx1112basic_stringIcSt11char_traitsIcESaIcEEEPS_P8ChatRoom
FNDA:4,_ZN4UserC2ENSt7__cxx1112basic_stringIcSt11char_traitsIcESaIcEEE
FNDA:8,_ZN4User10addCommandEP7Command
FNDA:4,_ZN4User10executeAllEv
FNF:6
FNH:6
DA:3,4
DA:5,4
DA:6,4
DA:7,4
DA:8,4
DA:10,4
DA:12,4
DA:14,0
DA:16,4
DA:18,4
DA:20,4
DA:21,4
DA:23,4
DA:24,4
DA:26,4
DA:27,4
DA:29,7
DA:31,7
DA:32,7
DA:34,8
DA:36,8
DA:37,8
DA:39,4
DA:41,12
DA:43,8
DA:46,12
DA:48,8
DA:50,8
DA:54,4
DA:55,4
LF:30
LH:29
end_of_record
TN:
SF:/home/jaitin/Documents/COS 214/Prac1/User.h
FN:114,117,_ZN4User7getNameB5cxx11Ev
FN:126,129,_ZN4User16registerChatRoomEP8ChatRoom
FNDA:27,_ZN4User7getNameB5cxx11Ev
FNDA:6,_ZN4User16registerChatRoomEP8ChatRoom
FNF:2
FNH:2
DA:114,27
DA:116,27
DA:126,6
DA:128,6
DA:129,6
LF:5
LH:5
end_of_record
